target datalayout = "e-m:e-p270:32:32-p271:32:32-p272:64:64-i64:64-i128:128-f80:128-n8:16:32:64-S128"
target triple = "x86_64-pc-linux-gnu"

%struct.Map_NodeStruct_t_ = type { ptr, ptr, i32, i32, i32, i32, [3 x i32], [3 x float], float, ptr, ptr, ptr, ptr, [2 x %struct.Map_TimeStruct_t_], [2 x %struct.Map_TimeStruct_t_], [2 x ptr], ptr, ptr, ptr }
%struct.Map_TimeStruct_t_ = type { float, float, float }
%struct.Map_ManStruct_t_ = type { ptr, i32, ptr, i32, ptr, i32, i32, ptr, ptr, ptr, ptr, ptr, ptr, ptr, ptr, i32, i32, i32, i32, float, float, float, float, i32, i32, float, i32, i32, i32, i32, ptr, [6 x [2 x i32]], [10 x [32 x i32]], [32 x i32], [32 x i32], ptr, ptr, ptr, ptr, ptr, ptr, i32, i32, i32, i32, i32, i32, i64, i64, i64, i64, i64, i64, i64, i64, i64, i64, i64 }
%struct.Map_CutStruct_t_ = type { ptr, ptr, ptr, [6 x ptr], i32, i8, i8, i8, i8, [2 x %struct.Map_MatchStruct_t_] }
%struct.Map_MatchStruct_t_ = type { ptr, i32, i32, ptr, %struct.Map_TimeStruct_t_, float }
%struct.Map_SuperStruct_t_ = type { i32, i32, [4 x i8], i32, [6 x ptr], ptr, [2 x i32], [6 x %struct.Map_TimeStruct_t_], [6 x %struct.Map_TimeStruct_t_], %struct.Map_TimeStruct_t_, float, ptr, ptr }

; Function Attrs: nounwind uwtable
define void @Map_MappingSetRefs_rec(ptr noundef %0, ptr noundef %1) #0 {
  %3 = alloca ptr, align 8
  %4 = alloca ptr, align 8
  %5 = alloca ptr, align 8
  %6 = alloca ptr, align 8
  %7 = alloca i32, align 4
  %8 = alloca i32, align 4
  %9 = alloca i32, align 4
  %10 = alloca i32, align 4
  %11 = alloca i32, align 4
  store ptr %0, ptr %3, align 8, !tbaa !14
  store ptr %1, ptr %4, align 8, !tbaa !3
  call void @llvm.lifetime.start.p0(i64 8, ptr %5) #4
  call void @llvm.lifetime.start.p0(i64 8, ptr %6) #4
  call void @llvm.lifetime.start.p0(i64 4, ptr %7) #4
  call void @llvm.lifetime.start.p0(i64 4, ptr %8) #4
  call void @llvm.lifetime.start.p0(i64 4, ptr %9) #4
  call void @llvm.lifetime.start.p0(i64 4, ptr %10) #4
  %12 = load ptr, ptr %4, align 8, !tbaa !3
  %13 = ptrtoint ptr %12 to i64
  %14 = and i64 %13, -2
  %15 = inttoptr i64 %14 to ptr
  store ptr %15, ptr %6, align 8, !tbaa !3
  %16 = load ptr, ptr %4, align 8, !tbaa !3
  %17 = ptrtoint ptr %16 to i64
  %18 = and i64 %17, 1
  %19 = trunc i64 %18 to i32
  %20 = icmp ne i32 %19, 0
  %21 = xor i1 %20, true
  %22 = zext i1 %21 to i32
  store i32 %22, ptr %9, align 4, !tbaa !8
  %23 = load ptr, ptr %6, align 8, !tbaa !3
  %24 = getelementptr inbounds nuw %struct.Map_NodeStruct_t_, ptr %23, i32 0, i32 6
  %25 = getelementptr inbounds [3 x i32], ptr %24, i64 0, i64 2
  %26 = load i32, ptr %25, align 8, !tbaa !8
  %27 = add nsw i32 %26, 1
  store i32 %27, ptr %25, align 8, !tbaa !8
  %28 = load ptr, ptr %6, align 8, !tbaa !3
  %29 = getelementptr inbounds nuw %struct.Map_NodeStruct_t_, ptr %28, i32 0, i32 6
  %30 = load i32, ptr %9, align 4, !tbaa !8
  %31 = sext i32 %30 to i64
  %32 = getelementptr inbounds [3 x i32], ptr %29, i64 0, i64 %31
  %33 = load i32, ptr %32, align 4, !tbaa !8
  %34 = add nsw i32 %33, 1
  store i32 %34, ptr %32, align 4, !tbaa !8
  %35 = icmp ne i32 %33, 0
  br i1 %35, label %36, label %37

36:                                               ; preds = %2
  store i32 1, ptr %11, align 4
  br label %132

37:                                               ; preds = %2
  %38 = load ptr, ptr %6, align 8, !tbaa !3
  %39 = call i32 @Map_NodeIsVar(ptr noundef %38)
  %40 = icmp ne i32 %39, 0
  br i1 %40, label %41, label %42

41:                                               ; preds = %37
  store i32 1, ptr %11, align 4
  br label %132

42:                                               ; preds = %37
  %43 = load ptr, ptr %6, align 8, !tbaa !3
  %44 = call i32 @Map_NodeIsBuf(ptr noundef %43)
  %45 = icmp ne i32 %44, 0
  br i1 %45, label %46, label %59

46:                                               ; preds = %42
  %47 = load ptr, ptr %3, align 8, !tbaa !14
  %48 = load ptr, ptr %6, align 8, !tbaa !3
  %49 = getelementptr inbounds nuw %struct.Map_NodeStruct_t_, ptr %48, i32 0, i32 9
  %50 = load ptr, ptr %49, align 8, !tbaa !62
  %51 = ptrtoint ptr %50 to i64
  %52 = load ptr, ptr %4, align 8, !tbaa !3
  %53 = ptrtoint ptr %52 to i64
  %54 = and i64 %53, 1
  %55 = trunc i64 %54 to i32
  %56 = sext i32 %55 to i64
  %57 = xor i64 %51, %56
  %58 = inttoptr i64 %57 to ptr
  call void @Map_MappingSetRefs_rec(ptr noundef %47, ptr noundef %58)
  store i32 1, ptr %11, align 4
  br label %132

59:                                               ; preds = %42
  %60 = load ptr, ptr %6, align 8, !tbaa !3
  %61 = getelementptr inbounds nuw %struct.Map_NodeStruct_t_, ptr %60, i32 0, i32 15
  %62 = load i32, ptr %9, align 4, !tbaa !8
  %63 = sext i32 %62 to i64
  %64 = getelementptr inbounds [2 x ptr], ptr %61, i64 0, i64 %63
  %65 = load ptr, ptr %64, align 8, !tbaa !10
  store ptr %65, ptr %5, align 8, !tbaa !10
  %66 = load ptr, ptr %5, align 8, !tbaa !10
  %67 = icmp eq ptr %66, null
  br i1 %67, label %68, label %79

68:                                               ; preds = %59
  %69 = load i32, ptr %9, align 4, !tbaa !8
  %70 = icmp ne i32 %69, 0
  %71 = xor i1 %70, true
  %72 = zext i1 %71 to i32
  store i32 %72, ptr %9, align 4, !tbaa !8
  %73 = load ptr, ptr %6, align 8, !tbaa !3
  %74 = getelementptr inbounds nuw %struct.Map_NodeStruct_t_, ptr %73, i32 0, i32 15
  %75 = load i32, ptr %9, align 4, !tbaa !8
  %76 = sext i32 %75 to i64
  %77 = getelementptr inbounds [2 x ptr], ptr %74, i64 0, i64 %76
  %78 = load ptr, ptr %77, align 8, !tbaa !10
  store ptr %78, ptr %5, align 8, !tbaa !10
  br label %79

79:                                               ; preds = %68, %59
  %80 = load ptr, ptr %3, align 8, !tbaa !14
  %81 = getelementptr inbounds nuw %struct.Map_ManStruct_t_, ptr %80, i32 0, i32 29
  %82 = load i32, ptr %81, align 8, !tbaa !63
  %83 = icmp ne i32 %82, 0
  br i1 %83, label %84, label %94

84:                                               ; preds = %79
  %85 = load ptr, ptr %5, align 8, !tbaa !10
  %86 = getelementptr inbounds nuw %struct.Map_CutStruct_t_, ptr %85, i32 0, i32 9
  %87 = load i32, ptr %9, align 4, !tbaa !8
  %88 = sext i32 %87 to i64
  %89 = getelementptr inbounds [2 x %struct.Map_MatchStruct_t_], ptr %86, i64 0, i64 %88
  %90 = getelementptr inbounds nuw %struct.Map_MatchStruct_t_, ptr %89, i32 0, i32 3
  %91 = load ptr, ptr %90, align 8, !tbaa !39
  %92 = getelementptr inbounds nuw %struct.Map_SuperStruct_t_, ptr %91, i32 0, i32 5
  %93 = load ptr, ptr %92, align 8, !tbaa !52
  call void @Mio_GateIncProfile2(ptr noundef %93)
  br label %94

94:                                               ; preds = %84, %79
  %95 = load ptr, ptr %5, align 8, !tbaa !10
  %96 = getelementptr inbounds nuw %struct.Map_CutStruct_t_, ptr %95, i32 0, i32 9
  %97 = load i32, ptr %9, align 4, !tbaa !8
  %98 = sext i32 %97 to i64
  %99 = getelementptr inbounds [2 x %struct.Map_MatchStruct_t_], ptr %96, i64 0, i64 %98
  %100 = getelementptr inbounds nuw %struct.Map_MatchStruct_t_, ptr %99, i32 0, i32 2
  %101 = load i32, ptr %100, align 4, !tbaa !44
  store i32 %101, ptr %7, align 4, !tbaa !8
  store i32 0, ptr %8, align 4, !tbaa !8
  br label %102

102:                                              ; preds = %128, %94
  %103 = load i32, ptr %8, align 4, !tbaa !8
  %104 = load ptr, ptr %5, align 8, !tbaa !10
  %105 = getelementptr inbounds nuw %struct.Map_CutStruct_t_, ptr %104, i32 0, i32 5
  %106 = load i8, ptr %105, align 4, !tbaa !48
  %107 = sext i8 %106 to i32
  %108 = icmp slt i32 %103, %107
  br i1 %108, label %109, label %131

109:                                              ; preds = %102
  %110 = load i32, ptr %7, align 4, !tbaa !8
  %111 = load i32, ptr %8, align 4, !tbaa !8
  %112 = shl i32 1, %111
  %113 = and i32 %110, %112
  %114 = icmp ugt i32 %113, 0
  %115 = zext i1 %114 to i32
  store i32 %115, ptr %10, align 4, !tbaa !8
  %116 = load ptr, ptr %3, align 8, !tbaa !14
  %117 = load ptr, ptr %5, align 8, !tbaa !10
  %118 = getelementptr inbounds nuw %struct.Map_CutStruct_t_, ptr %117, i32 0, i32 3
  %119 = load i32, ptr %8, align 4, !tbaa !8
  %120 = sext i32 %119 to i64
  %121 = getelementptr inbounds [6 x ptr], ptr %118, i64 0, i64 %120
  %122 = load ptr, ptr %121, align 8, !tbaa !3
  %123 = ptrtoint ptr %122 to i64
  %124 = load i32, ptr %10, align 4, !tbaa !8
  %125 = sext i32 %124 to i64
  %126 = xor i64 %123, %125
  %127 = inttoptr i64 %126 to ptr
  call void @Map_MappingSetRefs_rec(ptr noundef %116, ptr noundef %127)
  br label %128

128:                                              ; preds = %109
  %129 = load i32, ptr %8, align 4, !tbaa !8
  %130 = add nsw i32 %129, 1
  store i32 %130, ptr %8, align 4, !tbaa !8
  br label %102, !llvm.loop !64

131:                                              ; preds = %102
  store i32 0, ptr %11, align 4
  br label %132

132:                                              ; preds = %131, %46, %41, %36
  call void @llvm.lifetime.end.p0(i64 4, ptr %10) #4
  call void @llvm.lifetime.end.p0(i64 4, ptr %9) #4
  call void @llvm.lifetime.end.p0(i64 4, ptr %8) #4
  call void @llvm.lifetime.end.p0(i64 4, ptr %7) #4
  call void @llvm.lifetime.end.p0(i64 8, ptr %6) #4
  call void @llvm.lifetime.end.p0(i64 8, ptr %5) #4
  %133 = load i32, ptr %11, align 4
  switch i32 %133, label %135 [
    i32 0, label %134
    i32 1, label %134
  ]

134:                                              ; preds = %132, %132
  ret void

135:                                              ; preds = %132
  unreachable
}