; Function Attrs: nounwind uwtable
define void @Map_MappingSetRefs_rec(ptr noundef readonly captures(none) %0, ptr noundef %1) local_unnamed_addr #5 {
  %3 = ptrtoint ptr %1 to i64
  %4 = and i64 %3, -2
  %5 = inttoptr i64 %4 to ptr
  %6 = trunc i64 %3 to i32
  %7 = and i32 %6, 1
  %8 = xor i32 %7, 1
  %9 = getelementptr inbounds nuw i8, ptr %5, i64 32
  %10 = getelementptr inbounds nuw i8, ptr %5, i64 40
  %11 = load i32, ptr %10, align 8, !tbaa !8
  %12 = add nsw i32 %11, 1
  store i32 %12, ptr %10, align 8, !tbaa !8
  %13 = zext nneg i32 %8 to i64
  %14 = getelementptr inbounds nuw [3 x i32], ptr %9, i64 0, i64 %13
  %15 = load i32, ptr %14, align 4, !tbaa !8
  %16 = add nsw i32 %15, 1
  store i32 %16, ptr %14, align 4, !tbaa !8
  %.not48 = icmp eq i32 %15, 0
  br i1 %.not48, label %.lr.ph, label %.loopexit

.lr.ph:                                           ; preds = %2, %tailrecurse
  %17 = phi i64 [ %38, %tailrecurse ], [ %13, %2 ]
  %18 = phi i32 [ %33, %tailrecurse ], [ %8, %2 ]
  %19 = phi i32 [ %32, %tailrecurse ], [ %7, %2 ]
  %20 = phi ptr [ %30, %tailrecurse ], [ %5, %2 ]
  %21 = phi i64 [ %28, %tailrecurse ], [ %3, %2 ]
  %22 = tail call i32 @Map_NodeIsVar(ptr noundef nonnull %20) #7
  %.not32 = icmp eq i32 %22, 0
  br i1 %.not32, label %23, label %.loopexit

23:                                               ; preds = %.lr.ph
  %24 = tail call i32 @Map_NodeIsBuf(ptr noundef nonnull %20) #7
  %.not33 = icmp eq i32 %24, 0
  br i1 %.not33, label %42, label %tailrecurse

tailrecurse:                                      ; preds = %23
  %25 = getelementptr inbounds nuw i8, ptr %20, i64 64
  %26 = load ptr, ptr %25, align 8, !tbaa !58
  %27 = ptrtoint ptr %26 to i64
  %28 = xor i64 %21, %27
  %29 = and i64 %27, -2
  %30 = inttoptr i64 %29 to ptr
  %31 = trunc i64 %28 to i32
  %32 = and i32 %31, 1
  %33 = xor i32 %32, 1
  %34 = getelementptr inbounds nuw i8, ptr %30, i64 32
  %35 = getelementptr inbounds nuw i8, ptr %30, i64 40
  %36 = load i32, ptr %35, align 8, !tbaa !8
  %37 = add nsw i32 %36, 1
  store i32 %37, ptr %35, align 8, !tbaa !8
  %38 = zext nneg i32 %33 to i64
  %39 = getelementptr inbounds nuw [3 x i32], ptr %34, i64 0, i64 %38
  %40 = load i32, ptr %39, align 4, !tbaa !8
  %41 = add nsw i32 %40, 1
  store i32 %41, ptr %39, align 4, !tbaa !8
  %.not = icmp eq i32 %40, 0
  br i1 %.not, label %.lr.ph, label %.loopexit

42:                                               ; preds = %23
  %43 = getelementptr inbounds nuw i8, ptr %20, i64 144
  %44 = getelementptr inbounds nuw [2 x ptr], ptr %43, i64 0, i64 %17
  %45 = load ptr, ptr %44, align 8, !tbaa !3
  %46 = icmp eq ptr %45, null
  br i1 %46, label %47, label %51

47:                                               ; preds = %42
  %48 = and i64 %21, 1
  %49 = getelementptr inbounds nuw [2 x ptr], ptr %43, i64 0, i64 %48
  %50 = load ptr, ptr %49, align 8, !tbaa !3
  br label %51

51:                                               ; preds = %47, %42
  %.029 = phi i32 [ %19, %47 ], [ %18, %42 ]
  %.0 = phi ptr [ %50, %47 ], [ %45, %42 ]
  %52 = getelementptr inbounds nuw i8, ptr %0, i64 168
  %53 = load i32, ptr %52, align 8, !tbaa !59
  %.not35 = icmp eq i32 %53, 0
  %.pre = zext nneg i32 %.029 to i64
  %.pre62 = mul nuw nsw i64 %.pre, 40
  br i1 %.not35, label %._crit_edge, label %54

54:                                               ; preds = %51
  %55 = getelementptr i8, ptr %.0, i64 96
  %56 = getelementptr i8, ptr %55, i64 %.pre62
  %57 = load ptr, ptr %56, align 8, !tbaa !36
  %58 = getelementptr inbounds nuw i8, ptr %57, i64 64
  %59 = load ptr, ptr %58, align 8, !tbaa !48
  tail call void @Mio_GateIncProfile2(ptr noundef %59) #7
  br label %._crit_edge

._crit_edge:                                      ; preds = %51, %54
  %60 = getelementptr i8, ptr %.0, i64 92
  %61 = getelementptr i8, ptr %60, i64 %.pre62
  %62 = load i32, ptr %61, align 4, !tbaa !40
  %63 = getelementptr inbounds nuw i8, ptr %.0, i64 76
  %64 = load i8, ptr %63, align 4, !tbaa !44
  %65 = icmp sgt i8 %64, 0
  br i1 %65, label %.lr.ph50, label %.loopexit

.lr.ph50:                                         ; preds = %._crit_edge
  %66 = getelementptr inbounds nuw i8, ptr %.0, i64 24
  br label %67

67:                                               ; preds = %.lr.ph50, %67
  %indvars.iv = phi i64 [ 0, %.lr.ph50 ], [ %indvars.iv.next, %67 ]
  %68 = trunc nuw nsw i64 %indvars.iv to i32
  %69 = lshr i32 %62, %68
  %70 = and i32 %69, 1
  %71 = getelementptr inbounds nuw [6 x ptr], ptr %66, i64 0, i64 %indvars.iv
  %72 = load ptr, ptr %71, align 8, !tbaa !29
  %73 = ptrtoint ptr %72 to i64
  %74 = zext nneg i32 %70 to i64
  %75 = xor i64 %73, %74
  %76 = inttoptr i64 %75 to ptr
  tail call void @Map_MappingSetRefs_rec(ptr noundef %0, ptr noundef %76)
  %indvars.iv.next = add nuw nsw i64 %indvars.iv, 1
  %77 = load i8, ptr %63, align 4, !tbaa !44
  %78 = sext i8 %77 to i64
  %79 = icmp slt i64 %indvars.iv.next, %78
  br i1 %79, label %67, label %.loopexit, !llvm.loop !60

.loopexit:                                        ; preds = %tailrecurse, %.lr.ph, %67, %2, %._crit_edge
  ret void
}